target datalayout = "e-m:e-p270:32:32-p271:32:32-p272:64:64-i64:64-i128:128-f80:128-n8:16:32:64-S128"
target triple = "x86_64-pc-linux-gnu"

@hf_s5066dts_data_ack_cpdu_start = internal global i32 0, align 4
@hf_s5066dts_data_ack_cpdu_end = internal global i32 0, align 4
@hf_s5066dts_data_ack_deliver_in_order = internal global i32 0, align 4
@hf_s5066dts_data_ack_drop_cpdu = internal global i32 0, align 4
@hf_s5066dts_data_ack_tx_win_uwe = internal global i32 0, align 4
@hf_s5066dts_data_ack_tx_win_lwe = internal global i32 0, align 4
@hf_s5066dts_data_ack_segmented_cpdu_size = internal global i32 0, align 4
@hf_s5066dts_data_ack_transmit_sequence_number = internal global i32 0, align 4
@hf_s5066dts_data_ack_rx_lwe = internal global i32 0, align 4
@hf_s5066dts_data_ack_acks = internal global i32 0, align 4

; Function Attrs: null_pointer_is_valid sspstrong uwtable
define internal i32 @dissect_s5066dts_data_ack(ptr noundef %0, i32 noundef %1, ptr noundef %2, i32 noundef %3) #0 {
  %5 = alloca ptr, align 8
  %6 = alloca i32, align 4
  %7 = alloca ptr, align 8
  %8 = alloca i32, align 4
  %9 = alloca i32, align 4
  store ptr %0, ptr %5, align 8
  store i32 %1, ptr %6, align 4
  store ptr %2, ptr %7, align 8
  store i32 %3, ptr %8, align 4
  call void @llvm.lifetime.start.p0(i64 4, ptr %9) #4
  %10 = load i32, ptr %8, align 4
  %11 = sub i32 %10, 10
  store i32 %11, ptr %9, align 4
  %12 = load ptr, ptr %7, align 8
  %13 = load i32, ptr @hf_s5066dts_data_ack_cpdu_start, align 4
  %14 = load ptr, ptr %5, align 8
  %15 = load i32, ptr %6, align 4
  %16 = call ptr @proto_tree_add_item(ptr noundef %12, i32 noundef %13, ptr noundef %14, i32 noundef %15, i32 noundef 1, i32 noundef 0)
  %17 = load ptr, ptr %7, align 8
  %18 = load i32, ptr @hf_s5066dts_data_ack_cpdu_end, align 4
  %19 = load ptr, ptr %5, align 8
  %20 = load i32, ptr %6, align 4
  %21 = call ptr @proto_tree_add_item(ptr noundef %17, i32 noundef %18, ptr noundef %19, i32 noundef %20, i32 noundef 1, i32 noundef 0)
  %22 = load ptr, ptr %7, align 8
  %23 = load i32, ptr @hf_s5066dts_data_ack_deliver_in_order, align 4
  %24 = load ptr, ptr %5, align 8
  %25 = load i32, ptr %6, align 4
  %26 = call ptr @proto_tree_add_item(ptr noundef %22, i32 noundef %23, ptr noundef %24, i32 noundef %25, i32 noundef 1, i32 noundef 0)
  %27 = load ptr, ptr %7, align 8
  %28 = load i32, ptr @hf_s5066dts_data_ack_drop_cpdu, align 4
  %29 = load ptr, ptr %5, align 8
  %30 = load i32, ptr %6, align 4
  %31 = call ptr @proto_tree_add_item(ptr noundef %27, i32 noundef %28, ptr noundef %29, i32 noundef %30, i32 noundef 1, i32 noundef 0)
  %32 = load ptr, ptr %7, align 8
  %33 = load i32, ptr @hf_s5066dts_data_ack_tx_win_uwe, align 4
  %34 = load ptr, ptr %5, align 8
  %35 = load i32, ptr %6, align 4
  %36 = call ptr @proto_tree_add_item(ptr noundef %32, i32 noundef %33, ptr noundef %34, i32 noundef %35, i32 noundef 1, i32 noundef 0)
  %37 = load ptr, ptr %7, align 8
  %38 = load i32, ptr @hf_s5066dts_data_ack_tx_win_lwe, align 4
  %39 = load ptr, ptr %5, align 8
  %40 = load i32, ptr %6, align 4
  %41 = call ptr @proto_tree_add_item(ptr noundef %37, i32 noundef %38, ptr noundef %39, i32 noundef %40, i32 noundef 1, i32 noundef 0)
  %42 = load ptr, ptr %7, align 8
  %43 = load i32, ptr @hf_s5066dts_data_ack_segmented_cpdu_size, align 4
  %44 = load ptr, ptr %5, align 8
  %45 = load i32, ptr %6, align 4
  %46 = call ptr @proto_tree_add_item(ptr noundef %42, i32 noundef %43, ptr noundef %44, i32 noundef %45, i32 noundef 2, i32 noundef 0)
  %47 = load i32, ptr %6, align 4
  %48 = add i32 %47, 2
  store i32 %48, ptr %6, align 4
  %49 = load ptr, ptr %7, align 8
  %50 = load i32, ptr @hf_s5066dts_data_ack_transmit_sequence_number, align 4
  %51 = load ptr, ptr %5, align 8
  %52 = load i32, ptr %6, align 4
  %53 = call ptr @proto_tree_add_item(ptr noundef %49, i32 noundef %50, ptr noundef %51, i32 noundef %52, i32 noundef 1, i32 noundef 0)
  %54 = load i32, ptr %6, align 4
  %55 = add i32 %54, 1
  store i32 %55, ptr %6, align 4
  %56 = load ptr, ptr %7, align 8
  %57 = load i32, ptr @hf_s5066dts_data_ack_rx_lwe, align 4
  %58 = load ptr, ptr %5, align 8
  %59 = load i32, ptr %6, align 4
  %60 = call ptr @proto_tree_add_item(ptr noundef %56, i32 noundef %57, ptr noundef %58, i32 noundef %59, i32 noundef 1, i32 noundef 0)
  %61 = load i32, ptr %6, align 4
  %62 = add i32 %61, 1
  store i32 %62, ptr %6, align 4
  %63 = load i32, ptr %9, align 4
  %64 = icmp ugt i32 %63, 0
  br i1 %64, label %65, label %75

65:                                               ; preds = %4
  %66 = load ptr, ptr %7, align 8
  %67 = load i32, ptr @hf_s5066dts_data_ack_acks, align 4
  %68 = load ptr, ptr %5, align 8
  %69 = load i32, ptr %6, align 4
  %70 = load i32, ptr %9, align 4
  %71 = call ptr @proto_tree_add_item(ptr noundef %66, i32 noundef %67, ptr noundef %68, i32 noundef %69, i32 noundef %70, i32 noundef 0)
  %72 = load i32, ptr %9, align 4
  %73 = load i32, ptr %6, align 4
  %74 = add i32 %73, %72
  store i32 %74, ptr %6, align 4
  br label %75

75:                                               ; preds = %65, %4
  %76 = load i32, ptr %6, align 4
  call void @llvm.lifetime.end.p0(i64 4, ptr %9) #4
  ret i32 %76
}