; Function Attrs: null_pointer_is_valid sspstrong uwtable
define internal fastcc range(i32 0, 39) i32 @dissect_s5066dts_data_ack(ptr noundef %0, i32 noundef range(i32 6, 14) %1, ptr noundef %2, i32 noundef range(i32 0, 32) %3) unnamed_addr #0 {
  %5 = add nsw i32 %3, -10
  %6 = load i32, ptr @hf_s5066dts_data_ack_cpdu_start, align 4
  %7 = tail call ptr @proto_tree_add_item(ptr noundef %2, i32 noundef %6, ptr noundef %0, i32 noundef %1, i32 noundef 1, i32 noundef 0)
  %8 = load i32, ptr @hf_s5066dts_data_ack_cpdu_end, align 4
  %9 = tail call ptr @proto_tree_add_item(ptr noundef %2, i32 noundef %8, ptr noundef %0, i32 noundef %1, i32 noundef 1, i32 noundef 0)
  %10 = load i32, ptr @hf_s5066dts_data_ack_deliver_in_order, align 4
  %11 = tail call ptr @proto_tree_add_item(ptr noundef %2, i32 noundef %10, ptr noundef %0, i32 noundef %1, i32 noundef 1, i32 noundef 0)
  %12 = load i32, ptr @hf_s5066dts_data_ack_drop_cpdu, align 4
  %13 = tail call ptr @proto_tree_add_item(ptr noundef %2, i32 noundef %12, ptr noundef %0, i32 noundef %1, i32 noundef 1, i32 noundef 0)
  %14 = load i32, ptr @hf_s5066dts_data_ack_tx_win_uwe, align 4
  %15 = tail call ptr @proto_tree_add_item(ptr noundef %2, i32 noundef %14, ptr noundef %0, i32 noundef %1, i32 noundef 1, i32 noundef 0)
  %16 = load i32, ptr @hf_s5066dts_data_ack_tx_win_lwe, align 4
  %17 = tail call ptr @proto_tree_add_item(ptr noundef %2, i32 noundef %16, ptr noundef %0, i32 noundef %1, i32 noundef 1, i32 noundef 0)
  %18 = load i32, ptr @hf_s5066dts_data_ack_segmented_cpdu_size, align 4
  %19 = tail call ptr @proto_tree_add_item(ptr noundef %2, i32 noundef %18, ptr noundef %0, i32 noundef %1, i32 noundef 2, i32 noundef 0)
  %20 = add nuw nsw i32 %1, 2
  %21 = load i32, ptr @hf_s5066dts_data_ack_transmit_sequence_number, align 4
  %22 = tail call ptr @proto_tree_add_item(ptr noundef %2, i32 noundef %21, ptr noundef %0, i32 noundef %20, i32 noundef 1, i32 noundef 0)
  %23 = add nuw nsw i32 %1, 3
  %24 = load i32, ptr @hf_s5066dts_data_ack_rx_lwe, align 4
  %25 = tail call ptr @proto_tree_add_item(ptr noundef %2, i32 noundef %24, ptr noundef %0, i32 noundef %23, i32 noundef 1, i32 noundef 0)
  %26 = add nuw nsw i32 %1, 4
  %.not = icmp eq i32 %5, 0
  br i1 %.not, label %31, label %27

27:                                               ; preds = %4
  %28 = load i32, ptr @hf_s5066dts_data_ack_acks, align 4
  %29 = tail call ptr @proto_tree_add_item(ptr noundef %2, i32 noundef %28, ptr noundef %0, i32 noundef %26, i32 noundef %5, i32 noundef 0)
  %30 = add nsw i32 %5, %26
  br label %31

31:                                               ; preds = %27, %4
  %.0 = phi i32 [ %30, %27 ], [ %26, %4 ]
  ret i32 %.0
}